target datalayout = "e-m:e-p270:32:32-p271:32:32-p272:64:64-i64:64-i128:128-f80:128-n8:16:32:64-S128"
target triple = "x86_64-pc-linux-gnu"

%struct._php_basic_globals = type { ptr, %struct._zend_array, ptr, ptr, i8, ptr, [256 x i8], i64, %struct._zend_fcall_info, %struct._zend_fcall_info_cache, ptr, %struct._zval_struct, %struct._zval_struct, i64, i64, i64, i64, ptr, ptr, %struct._php_stream_statbuf, %struct._php_stream_statbuf, ptr, i32, %struct.anon.7, %struct.anon.8, %struct.url_adapt_state_ex_t, %struct._zend_array, %struct.url_adapt_state_ex_t, %struct._zend_array, ptr, i32, i64 }
%struct._zend_fcall_info = type { i64, %struct._zval_struct, ptr, ptr, ptr, i32, ptr }
%struct._zend_fcall_info_cache = type { ptr, ptr, ptr, ptr, ptr }
%struct._zval_struct = type { %union._zend_value, %union.anon.3, %union.anon.6 }
%union._zend_value = type { i64 }
%union.anon.3 = type { i32 }
%union.anon.6 = type { i32 }
%struct._php_stream_statbuf = type { %struct.stat }
%struct.stat = type { i64, i64, i64, i32, i32, i32, i32, i64, i64, i64, i64, %struct.timespec, %struct.timespec, %struct.timespec, [3 x i64] }
%struct.timespec = type { i64, i64 }
%struct.anon.7 = type { ptr, i32 }
%struct.anon.8 = type { ptr, i32 }
%struct.url_adapt_state_ex_t = type { %struct.smart_str, %struct.smart_str, %struct.smart_str, %struct.smart_str, %struct.smart_str, %struct.smart_str, %struct.smart_str, i32, ptr, i32, i32, %struct.smart_str, i32, i32, ptr }
%struct.smart_str = type { ptr, i64 }
%struct._zend_array = type { %struct._zend_refcounted_h, %union.anon.0, i32, %union.anon.1, i32, i32, i32, i32, i64, ptr }
%struct._zend_refcounted_h = type { i32, %union.anon }
%union.anon = type { i32 }
%union.anon.0 = type { i32 }
%union.anon.1 = type { ptr }
%struct._zend_executor_globals = type { %struct._zval_struct, %struct._zval_struct, [32 x ptr], ptr, ptr, %struct._zend_array, %struct._zend_array, ptr, i32, i32, ptr, ptr, ptr, ptr, ptr, ptr, i64, ptr, ptr, i32, i32, i64, i32, i32, i32, i8, i8, %struct.zend_atomic_bool_s, %struct.zend_atomic_bool_s, ptr, i64, ptr, ptr, %struct._zend_array, %struct._zend_array, i32, i8, %struct._zval_struct, %struct._zval_struct, %struct._zend_stack, %struct._zend_stack, %struct._zend_stack, ptr, i32, i32, i64, ptr, ptr, ptr, %struct._zend_objects_store, ptr, ptr, ptr, [3 x %struct._zend_op], ptr, i8, i8, i64, i32, i32, ptr, [16 x %struct._HashTableIterator], ptr, %union._zend_function, %struct._zend_op, %struct._zend_array, i64, %struct.zend_get_gc_buffer, ptr, ptr, ptr, i64, i8, i32, ptr, ptr, i64, %struct._zend_call_stack, i64, i64, [6 x ptr] }
%struct.zend_atomic_bool_s = type { i8 }
%struct._zend_stack = type { i32, i32, i32, ptr }
%struct._zend_objects_store = type { ptr, i32, i32, i32 }
%struct._HashTableIterator = type { ptr, i32, i32 }
%union._zend_function = type { %struct._zend_op_array }
%struct._zend_op_array = type { i8, [3 x i8], i32, ptr, ptr, ptr, i32, i32, ptr, ptr, ptr, ptr, i32, i32, i32, i32, ptr, ptr, ptr, ptr, ptr, i32, i32, ptr, ptr, ptr, i32, i32, i32, i32, ptr, ptr, [6 x ptr] }
%struct._zend_op = type { ptr, %union._znode_op, %union._znode_op, %union._znode_op, i32, i32, i8, i8, i8, i8 }
%union._znode_op = type { i32 }
%struct.zend_get_gc_buffer = type { ptr, ptr, ptr }
%struct._zend_call_stack = type { ptr, i64 }
%struct._zend_execute_data = type { ptr, ptr, ptr, ptr, %struct._zval_struct, ptr, ptr, ptr, ptr }
%struct.anon.4 = type { i8, i8, %union.anon.5 }
%union.anon.5 = type { i16 }
%struct._zend_object = type { %struct._zend_refcounted_h, i32, ptr, ptr, ptr, [1 x %struct._zval_struct] }
%struct._user_tick_function_entry = type { %struct._zend_fcall_info, %struct._zend_fcall_info_cache, i8 }

@basic_globals = global %struct._php_basic_globals zeroinitializer, align 8
@executor_globals = external global %struct._zend_executor_globals, align 8
@.str.21 = private unnamed_addr constant [3 x i8] c"f*\00", align 1

; Function Attrs: nounwind uwtable
define internal void @fci_addref(ptr noundef %0, ptr noundef %1) #0 {
  %3 = alloca ptr, align 8
  %4 = alloca ptr, align 8
  %5 = alloca ptr, align 8
  %6 = alloca ptr, align 8
  %7 = alloca ptr, align 8
  store ptr %0, ptr %6, align 8
  store ptr %1, ptr %7, align 8
  br label %8

8:                                                ; preds = %2
  %9 = load ptr, ptr %6, align 8
  %10 = getelementptr inbounds %struct._zend_fcall_info, ptr %9, i32 0, i32 1
  %11 = getelementptr inbounds %struct._zval_struct, ptr %10, i32 0, i32 1
  %12 = getelementptr inbounds %struct.anon.4, ptr %11, i32 0, i32 1
  %13 = load i8, ptr %12, align 1
  %14 = zext i8 %13 to i32
  %15 = icmp ne i32 %14, 0
  br i1 %15, label %16, label %30

16:                                               ; preds = %8
  %17 = load ptr, ptr %6, align 8
  %18 = getelementptr inbounds %struct._zend_fcall_info, ptr %17, i32 0, i32 1
  store ptr %18, ptr %4, align 8
  %19 = load ptr, ptr %4, align 8
  %20 = getelementptr inbounds %struct._zval_struct, ptr %19, i32 0, i32 1
  %21 = getelementptr inbounds %struct.anon.4, ptr %20, i32 0, i32 1
  %22 = load i8, ptr %21, align 1
  %23 = zext i8 %22 to i32
  %24 = icmp ne i32 %23, 0
  call void @llvm.assume(i1 %24)
  %25 = load ptr, ptr %4, align 8
  %26 = load ptr, ptr %25, align 8
  store ptr %26, ptr %3, align 8
  %27 = load ptr, ptr %3, align 8
  %28 = load i32, ptr %27, align 4
  %29 = add i32 %28, 1
  store i32 %29, ptr %27, align 4
  br label %30

30:                                               ; preds = %16, %8
  br label %31

31:                                               ; preds = %30
  %32 = load ptr, ptr %7, align 8
  %33 = getelementptr inbounds %struct._zend_fcall_info_cache, ptr %32, i32 0, i32 3
  %34 = load ptr, ptr %33, align 8
  %35 = icmp ne ptr %34, null
  br i1 %35, label %36, label %44

36:                                               ; preds = %31
  %37 = load ptr, ptr %7, align 8
  %38 = getelementptr inbounds %struct._zend_fcall_info_cache, ptr %37, i32 0, i32 3
  %39 = load ptr, ptr %38, align 8
  %40 = getelementptr inbounds %struct._zend_object, ptr %39, i32 0, i32 0
  store ptr %40, ptr %5, align 8
  %41 = load ptr, ptr %5, align 8
  %42 = load i32, ptr %41, align 4
  %43 = add i32 %42, 1
  store i32 %43, ptr %41, align 4
  br label %44

44:                                               ; preds = %36, %31
  ret void
}

; Function Attrs: nounwind uwtable
define hidden void @zif_register_tick_function(ptr noundef %0, ptr noundef %1) #0 {
  %3 = alloca ptr, align 8
  %4 = alloca ptr, align 8
  %5 = alloca %struct._user_tick_function_entry, align 8
  %6 = alloca ptr, align 8
  %7 = alloca i32, align 4
  store ptr %0, ptr %3, align 8
  store ptr %1, ptr %4, align 8
  store ptr null, ptr %6, align 8
  store i32 0, ptr %7, align 4
  %8 = load ptr, ptr %3, align 8
  %9 = getelementptr inbounds %struct._zend_execute_data, ptr %8, i32 0, i32 4
  %10 = getelementptr inbounds %struct._zval_struct, ptr %9, i32 0, i32 2
  %11 = load i32, ptr %10, align 4
  %12 = getelementptr inbounds %struct._user_tick_function_entry, ptr %5, i32 0, i32 0
  %13 = getelementptr inbounds %struct._user_tick_function_entry, ptr %5, i32 0, i32 1
  %14 = call i32 (i32, ptr, ...) @zend_parse_parameters(i32 noundef %11, ptr noundef @.str.21, ptr noundef %12, ptr noundef %13, ptr noundef %6, ptr noundef %7)
  %15 = icmp eq i32 %14, -1
  br i1 %15, label %16, label %21

16:                                               ; preds = %2
  br label %17

17:                                               ; preds = %16
  %18 = load ptr, ptr getelementptr inbounds (%struct._zend_executor_globals, ptr @executor_globals, i32 0, i32 50), align 8
  %19 = icmp ne ptr %18, null
  call void @llvm.assume(i1 %19)
  br label %40

20:                                               ; No predecessors!
  br label %21

21:                                               ; preds = %20, %2
  %22 = getelementptr inbounds %struct._user_tick_function_entry, ptr %5, i32 0, i32 2
  store i8 0, ptr %22, align 8
  %23 = getelementptr inbounds %struct._user_tick_function_entry, ptr %5, i32 0, i32 0
  %24 = getelementptr inbounds %struct._user_tick_function_entry, ptr %5, i32 0, i32 1
  call void @fci_addref(ptr noundef %23, ptr noundef %24)
  %25 = getelementptr inbounds %struct._user_tick_function_entry, ptr %5, i32 0, i32 0
  %26 = load i32, ptr %7, align 4
  %27 = load ptr, ptr %6, align 8
  call void @zend_fcall_info_argp(ptr noundef %25, i32 noundef %26, ptr noundef %27)
  %28 = load ptr, ptr getelementptr inbounds (%struct._php_basic_globals, ptr @basic_globals, i32 0, i32 10), align 8
  %29 = icmp ne ptr %28, null
  br i1 %29, label %33, label %30

30:                                               ; preds = %21
  %31 = call noalias ptr @_emalloc_56()
  store ptr %31, ptr getelementptr inbounds (%struct._php_basic_globals, ptr @basic_globals, i32 0, i32 10), align 8
  %32 = load ptr, ptr getelementptr inbounds (%struct._php_basic_globals, ptr @basic_globals, i32 0, i32 10), align 8
  call void @zend_llist_init(ptr noundef %32, i64 noundef 112, ptr noundef @user_tick_function_dtor, i8 noundef zeroext 0)
  call void @php_add_tick_function(ptr noundef @run_user_tick_functions, ptr noundef null)
  br label %33

33:                                               ; preds = %30, %21
  %34 = load ptr, ptr getelementptr inbounds (%struct._php_basic_globals, ptr @basic_globals, i32 0, i32 10), align 8
  call void @zend_llist_add_element(ptr noundef %34, ptr noundef %5)
  br label %35

35:                                               ; preds = %33
  br label %36

36:                                               ; preds = %35
  %37 = load ptr, ptr %4, align 8
  %38 = getelementptr inbounds %struct._zval_struct, ptr %37, i32 0, i32 1
  store i32 3, ptr %38, align 8
  br label %39

39:                                               ; preds = %36
  br label %40

40:                                               ; preds = %39, %17
  ret void
}