; Function Attrs: nounwind uwtable
define hidden void @zif_register_tick_function(ptr nocapture noundef readonly %0, ptr nocapture noundef writeonly %1) #0 {
  %3 = alloca %struct._user_tick_function_entry, align 8
  %4 = alloca ptr, align 8
  %5 = alloca i32, align 4
  store ptr null, ptr %4, align 8
  store i32 0, ptr %5, align 4
  %6 = getelementptr inbounds i8, ptr %0, i64 44
  %7 = load i32, ptr %6, align 4
  %8 = getelementptr inbounds i8, ptr %3, i64 64
  %9 = call i32 (i32, ptr, ...) @zend_parse_parameters(i32 noundef %7, ptr noundef nonnull @.str.21, ptr noundef nonnull %3, ptr noundef nonnull %8, ptr noundef nonnull %4, ptr noundef nonnull %5) #18
  %10 = icmp eq i32 %9, -1
  br i1 %10, label %11, label %14

11:                                               ; preds = %2
  %12 = load ptr, ptr getelementptr inbounds (%struct._zend_executor_globals, ptr @executor_globals, i64 0, i32 50), align 8
  %13 = icmp ne ptr %12, null
  call void @llvm.assume(i1 %13)
  br label %35

14:                                               ; preds = %2
  %15 = getelementptr inbounds i8, ptr %3, i64 104
  store i8 0, ptr %15, align 8
  %16 = getelementptr inbounds i8, ptr %3, i64 17
  %.val2 = load i8, ptr %16, align 1
  %.not.i = icmp eq i8 %.val2, 0
  br i1 %.not.i, label %21, label %17

17:                                               ; preds = %14
  %18 = getelementptr inbounds i8, ptr %3, i64 8
  %.val = load ptr, ptr %18, align 8
  %19 = load i32, ptr %.val, align 4
  %20 = add i32 %19, 1
  store i32 %20, ptr %.val, align 4
  br label %21

21:                                               ; preds = %17, %14
  %22 = getelementptr inbounds i8, ptr %3, i64 88
  %23 = load ptr, ptr %22, align 8
  %.not8.i = icmp eq ptr %23, null
  br i1 %.not8.i, label %fci_addref.exit, label %24

24:                                               ; preds = %21
  %25 = load i32, ptr %23, align 4
  %26 = add i32 %25, 1
  store i32 %26, ptr %23, align 4
  br label %fci_addref.exit

fci_addref.exit:                                  ; preds = %21, %24
  %27 = load i32, ptr %5, align 4
  %28 = load ptr, ptr %4, align 8
  call void @zend_fcall_info_argp(ptr noundef nonnull %3, i32 noundef %27, ptr noundef %28) #18
  %29 = load ptr, ptr getelementptr inbounds (%struct._php_basic_globals, ptr @basic_globals, i64 0, i32 10), align 8
  %.not = icmp eq ptr %29, null
  br i1 %.not, label %30, label %32

30:                                               ; preds = %fci_addref.exit
  %31 = call noalias ptr @_emalloc_56() #18
  store ptr %31, ptr getelementptr inbounds (%struct._php_basic_globals, ptr @basic_globals, i64 0, i32 10), align 8
  call void @zend_llist_init(ptr noundef %31, i64 noundef 112, ptr noundef nonnull @user_tick_function_dtor, i8 noundef zeroext 0) #18
  call void @php_add_tick_function(ptr noundef nonnull @run_user_tick_functions, ptr noundef null) #18
  %.pre = load ptr, ptr getelementptr inbounds (%struct._php_basic_globals, ptr @basic_globals, i64 0, i32 10), align 8
  br label %32

32:                                               ; preds = %30, %fci_addref.exit
  %33 = phi ptr [ %.pre, %30 ], [ %29, %fci_addref.exit ]
  call void @zend_llist_add_element(ptr noundef %33, ptr noundef nonnull %3) #18
  %34 = getelementptr inbounds i8, ptr %1, i64 8
  store i32 3, ptr %34, align 8
  br label %35

35:                                               ; preds = %32, %11
  ret void
}